; Function Attrs: nounwind uwtable
define internal noundef i32 @recurse_infinitely_error_init(ptr readnone captures(none) %0, ptr readnone captures(none) %1, ptr readnone captures(none) %2) #0 {
  %4 = load i32, ptr @PyRecursingInfinitelyError_Type, align 8, !tbaa !20
  %5 = icmp slt i32 %4, 0
  br i1 %5, label %Py_INCREF.exit, label %6

6:                                                ; preds = %3
  %7 = add nuw i32 %4, 1
  store i32 %7, ptr @PyRecursingInfinitelyError_Type, align 8, !tbaa !20
  br label %Py_INCREF.exit

Py_INCREF.exit:                                   ; preds = %3, %6
  tail call void @PyErr_SetObject(ptr noundef nonnull @PyRecursingInfinitelyError_Type, ptr noundef null) #8
  ret i32 -1
}